; Function Attrs: nounwind uwtable
define ptr @l_Lean_Compiler_LCNF_Code_forFVarM___rarg___lambda__3(ptr noundef %0, ptr noundef %1, ptr noundef %2, ptr noundef %3, ptr noundef %4, ptr readnone captures(none) %5) local_unnamed_addr #0 {
  %7 = getelementptr inbounds nuw i8, ptr %0, i64 32
  %8 = load ptr, ptr %7, align 8, !tbaa !4
  %9 = ptrtoint ptr %8 to i64
  %10 = and i64 %9, 1
  %.not = icmp eq i64 %10, 0
  br i1 %.not, label %11, label %lean_inc.exit24

11:                                               ; preds = %6
  %.val.i = load i32, ptr %8, align 4, !tbaa !8
  %12 = icmp sgt i32 %.val.i, 0
  br i1 %12, label %13, label %15, !prof !13

13:                                               ; preds = %11
  %14 = add nuw i32 %.val.i, 1
  store i32 %14, ptr %8, align 4, !tbaa !8
  br label %lean_inc.exit24

15:                                               ; preds = %11
  %.not.i = icmp eq i32 %.val.i, 0
  br i1 %.not.i, label %lean_inc.exit24, label %16

16:                                               ; preds = %15
  tail call void @lean_inc_ref_cold(ptr noundef nonnull %8) #4
  br label %lean_inc.exit24

lean_inc.exit24:                                  ; preds = %16, %15, %13, %6
  %17 = ptrtoint ptr %2 to i64
  %18 = and i64 %17, 1
  %.not34 = icmp eq i64 %18, 0
  br i1 %.not34, label %19, label %lean_inc.exit23

19:                                               ; preds = %lean_inc.exit24
  %.val.i25 = load i32, ptr %2, align 4, !tbaa !8
  %20 = icmp sgt i32 %.val.i25, 0
  br i1 %20, label %21, label %23, !prof !13

21:                                               ; preds = %19
  %22 = add nuw i32 %.val.i25, 1
  store i32 %22, ptr %2, align 4, !tbaa !8
  br label %lean_inc.exit23

23:                                               ; preds = %19
  %.not.i26 = icmp eq i32 %.val.i25, 0
  br i1 %.not.i26, label %lean_inc.exit23, label %24

24:                                               ; preds = %23
  tail call void @lean_inc_ref_cold(ptr noundef nonnull %2) #4
  br label %lean_inc.exit23

lean_inc.exit23:                                  ; preds = %24, %23, %21, %lean_inc.exit24
  %25 = ptrtoint ptr %1 to i64
  %26 = and i64 %25, 1
  %.not35 = icmp eq i64 %26, 0
  br i1 %.not35, label %27, label %lean_inc.exit22

27:                                               ; preds = %lean_inc.exit23
  %.val.i28 = load i32, ptr %1, align 4, !tbaa !8
  %28 = icmp sgt i32 %.val.i28, 0
  br i1 %28, label %29, label %31, !prof !13

29:                                               ; preds = %27
  %30 = add nuw i32 %.val.i28, 1
  store i32 %30, ptr %1, align 4, !tbaa !8
  br label %lean_inc.exit22

31:                                               ; preds = %27
  %.not.i29 = icmp eq i32 %.val.i28, 0
  br i1 %.not.i29, label %lean_inc.exit22, label %32

32:                                               ; preds = %31
  tail call void @lean_inc_ref_cold(ptr noundef nonnull %1) #4
  br label %lean_inc.exit22

lean_inc.exit22:                                  ; preds = %32, %31, %29, %lean_inc.exit23
  %33 = tail call ptr @l_Lean_Compiler_LCNF_Expr_forFVarM___rarg(ptr noundef %1, ptr noundef %2, ptr noundef %8)
  %34 = ptrtoint ptr %4 to i64
  %35 = and i64 %34, 1
  %.not36 = icmp eq i64 %35, 0
  br i1 %.not36, label %36, label %lean_inc.exit

36:                                               ; preds = %lean_inc.exit22
  %.val.i31 = load i32, ptr %4, align 4, !tbaa !8
  %37 = icmp sgt i32 %.val.i31, 0
  br i1 %37, label %38, label %40, !prof !13

38:                                               ; preds = %36
  %39 = add nuw i32 %.val.i31, 1
  store i32 %39, ptr %4, align 4, !tbaa !8
  br label %lean_inc.exit

40:                                               ; preds = %36
  %.not.i32 = icmp eq i32 %.val.i31, 0
  br i1 %.not.i32, label %lean_inc.exit, label %41

41:                                               ; preds = %40
  tail call void @lean_inc_ref_cold(ptr noundef nonnull %4) #4
  br label %lean_inc.exit

lean_inc.exit:                                    ; preds = %41, %40, %38, %lean_inc.exit22
  tail call void @lean_inc_heartbeat() #4
  %42 = tail call noalias ptr @mi_malloc_small(i64 noundef 64) #4
  %43 = icmp eq ptr %42, null
  br i1 %43, label %44, label %lean_alloc_closure.exit

44:                                               ; preds = %lean_inc.exit
  tail call void @lean_internal_panic_out_of_memory() #5
  unreachable

lean_alloc_closure.exit:                          ; preds = %lean_inc.exit
  %45 = getelementptr inbounds nuw i8, ptr %42, i64 4
  store i32 1, ptr %42, align 4, !tbaa !8
  store i32 -184549312, ptr %45, align 4
  %46 = getelementptr inbounds nuw i8, ptr %42, i64 8
  store ptr @l_Lean_Compiler_LCNF_Code_forFVarM___rarg___lambda__2___boxed, ptr %46, align 8, !tbaa !4
  %47 = getelementptr inbounds nuw i8, ptr %42, i64 16
  store i16 6, ptr %47, align 8, !tbaa !11
  %48 = getelementptr inbounds nuw i8, ptr %42, i64 18
  store i16 5, ptr %48, align 2, !tbaa !11
  %49 = getelementptr inbounds nuw i8, ptr %42, i64 24
  store ptr %0, ptr %49, align 8, !tbaa !4
  %50 = getelementptr inbounds nuw i8, ptr %42, i64 32
  store ptr %1, ptr %50, align 8, !tbaa !4
  %51 = getelementptr inbounds nuw i8, ptr %42, i64 40
  store ptr %2, ptr %51, align 8, !tbaa !4
  %52 = getelementptr inbounds nuw i8, ptr %42, i64 48
  store ptr %3, ptr %52, align 8, !tbaa !4
  %53 = getelementptr inbounds nuw i8, ptr %42, i64 56
  store ptr %4, ptr %53, align 8, !tbaa !4
  %54 = tail call ptr @lean_apply_4(ptr noundef %4, ptr noundef nonnull inttoptr (i64 1 to ptr), ptr noundef nonnull inttoptr (i64 1 to ptr), ptr noundef %33, ptr noundef nonnull %42) #4
  ret ptr %54
}